; Function Attrs: null_pointer_is_valid sspstrong uwtable
define internal fastcc i32 @dissect_player_message(ptr noundef %0, ptr noundef %1, i32 noundef range(i32 28, 77) %2) unnamed_addr #0 {
  %4 = alloca i32, align 4
  %5 = load i32, ptr @hf_dplay_multi_id_to, align 4
  %6 = tail call ptr @proto_tree_add_item(ptr noundef %0, i32 noundef %5, ptr noundef %1, i32 noundef %2, i32 noundef 4, i32 noundef 0)
  %7 = add nuw nsw i32 %2, 4
  %8 = load i32, ptr @hf_dplay_multi_player_id, align 4
  %9 = tail call ptr @proto_tree_add_item(ptr noundef %0, i32 noundef %8, ptr noundef %1, i32 noundef %7, i32 noundef 4, i32 noundef 0)
  %10 = add nuw nsw i32 %2, 8
  %11 = load i32, ptr @hf_dplay_multi_group_id, align 4
  %12 = tail call ptr @proto_tree_add_item(ptr noundef %0, i32 noundef %11, ptr noundef %1, i32 noundef %10, i32 noundef 4, i32 noundef 0)
  %13 = add nuw nsw i32 %2, 12
  %14 = tail call i32 @tvb_get_letohl(ptr noundef %1, i32 noundef %13)
  %15 = load i32, ptr @hf_dplay_multi_create_offset, align 4
  %16 = tail call ptr @proto_tree_add_item(ptr noundef %0, i32 noundef %15, ptr noundef %1, i32 noundef %13, i32 noundef 4, i32 noundef -2147483648)
  %17 = add nuw nsw i32 %2, 16
  %18 = load i32, ptr @hf_dplay_multi_password_offset, align 4
  %19 = tail call ptr @proto_tree_add_item(ptr noundef %0, i32 noundef %18, ptr noundef %1, i32 noundef %17, i32 noundef 4, i32 noundef -2147483648)
  %20 = add nuw nsw i32 %2, 20
  %.not = icmp eq i32 %14, 0
  br i1 %.not, label %23, label %21

21:                                               ; preds = %3
  %22 = tail call fastcc i32 @dissect_packed_player(ptr noundef %0, ptr noundef %1, i32 noundef %20)
  br label %23

23:                                               ; preds = %21, %3
  %.0 = phi i32 [ %22, %21 ], [ %20, %3 ]
  %24 = tail call zeroext i1 @tvb_bytes_exist(ptr noundef %1, i32 noundef %.0, i32 noundef 2)
  br i1 %24, label %25, label %33

25:                                               ; preds = %23
  %26 = load i32, ptr @hf_dplay_multi_password, align 4
  call void @llvm.lifetime.start.p0(i64 4, ptr nonnull %4) #3
  %27 = tail call ptr @wmem_packet_scope()
  %28 = call ptr @tvb_get_stringz_enc(ptr noundef %27, ptr noundef %1, i32 noundef %.0, ptr noundef nonnull %4, i32 noundef -2147483644)
  %29 = load i32, ptr %4, align 4
  %30 = call ptr @proto_tree_add_string(ptr noundef %0, i32 noundef %26, ptr noundef %1, i32 noundef %.0, i32 noundef %29, ptr noundef %28)
  %31 = load i32, ptr %4, align 4
  %32 = add i32 %31, %.0
  call void @llvm.lifetime.end.p0(i64 4, ptr nonnull %4) #3
  br label %33

33:                                               ; preds = %25, %23
  %.1 = phi i32 [ %32, %25 ], [ %.0, %23 ]
  ret i32 %.1
}